target datalayout = "e-m:e-p270:32:32-p271:32:32-p272:64:64-i64:64-i128:128-f80:128-n8:16:32:64-S128"
target triple = "x86_64-pc-linux-gnu"

%struct.Str_Mux_t_ = type { i32, i32, i32, i32, [3 x %struct.Str_Edg_t_] }
%struct.Str_Edg_t_ = type { i32, i32, i32, i32 }

; Function Attrs: inlinehint nounwind uwtable
define internal i32 @Str_MuxHasFanin(ptr noundef %0, i32 noundef %1) #3 {
  %3 = alloca ptr, align 8
  %4 = alloca i32, align 4
  store ptr %0, ptr %3, align 8, !tbaa !153
  store i32 %1, ptr %4, align 4, !tbaa !39
  %5 = load ptr, ptr %3, align 8, !tbaa !153
  %6 = getelementptr inbounds nuw %struct.Str_Mux_t_, ptr %5, i32 0, i32 4
  %7 = load i32, ptr %4, align 4, !tbaa !39
  %8 = sext i32 %7 to i64
  %9 = getelementptr inbounds [3 x %struct.Str_Edg_t_], ptr %6, i64 0, i64 %8
  %10 = getelementptr inbounds nuw %struct.Str_Edg_t_, ptr %9, i32 0, i32 0
  %11 = load i32, ptr %10, align 4, !tbaa !155
  %12 = icmp sgt i32 %11, 0
  br i1 %12, label %13, label %20

13:                                               ; preds = %2
  %14 = load ptr, ptr %3, align 8, !tbaa !153
  %15 = load i32, ptr %4, align 4, !tbaa !39
  %16 = call ptr @Str_MuxFanin(ptr noundef %14, i32 noundef %15)
  %17 = getelementptr inbounds nuw %struct.Str_Mux_t_, ptr %16, i32 0, i32 2
  %18 = load i32, ptr %17, align 4, !tbaa !162
  %19 = icmp ne i32 %18, -2
  br label %20

20:                                               ; preds = %13, %2
  %21 = phi i1 [ false, %2 ], [ %19, %13 ]
  %22 = zext i1 %21 to i32
  ret i32 %22
}

; Function Attrs: inlinehint nounwind uwtable
define internal i32 @Abc_Var2Lit(i32 noundef %0, i32 noundef %1) #3 {
  %3 = alloca i32, align 4
  %4 = alloca i32, align 4
  store i32 %0, ptr %3, align 4, !tbaa !39
  store i32 %1, ptr %4, align 4, !tbaa !39
  %5 = load i32, ptr %3, align 4, !tbaa !39
  %6 = load i32, ptr %3, align 4, !tbaa !39
  %7 = add nsw i32 %5, %6
  %8 = load i32, ptr %4, align 4, !tbaa !39
  %9 = add nsw i32 %7, %8
  ret i32 %9
}

; Function Attrs: inlinehint nounwind uwtable
define internal ptr @Str_MuxFanin(ptr noundef %0, i32 noundef %1) #3 {
  %3 = alloca ptr, align 8
  %4 = alloca i32, align 4
  store ptr %0, ptr %3, align 8, !tbaa !153
  store i32 %1, ptr %4, align 4, !tbaa !39
  %5 = load ptr, ptr %3, align 8, !tbaa !153
  %6 = load ptr, ptr %3, align 8, !tbaa !153
  %7 = getelementptr inbounds nuw %struct.Str_Mux_t_, ptr %6, i32 0, i32 0
  %8 = load i32, ptr %7, align 4, !tbaa !159
  %9 = sext i32 %8 to i64
  %10 = sub i64 0, %9
  %11 = getelementptr inbounds %struct.Str_Mux_t_, ptr %5, i64 %10
  %12 = load ptr, ptr %3, align 8, !tbaa !153
  %13 = getelementptr inbounds nuw %struct.Str_Mux_t_, ptr %12, i32 0, i32 4
  %14 = load i32, ptr %4, align 4, !tbaa !39
  %15 = sext i32 %14 to i64
  %16 = getelementptr inbounds [3 x %struct.Str_Edg_t_], ptr %13, i64 0, i64 %15
  %17 = getelementptr inbounds nuw %struct.Str_Edg_t_, ptr %16, i32 0, i32 0
  %18 = load i32, ptr %17, align 4, !tbaa !155
  %19 = sext i32 %18 to i64
  %20 = getelementptr inbounds %struct.Str_Mux_t_, ptr %11, i64 %19
  ret ptr %20
}

; Function Attrs: nounwind uwtable
define i32 @Str_MuxRestructArea_rec(ptr noundef %0, ptr noundef %1, ptr noundef %2, i32 noundef %3, ptr noundef %4, i32 noundef %5) #0 {
  %7 = alloca i32, align 4
  %8 = alloca ptr, align 8
  %9 = alloca ptr, align 8
  %10 = alloca ptr, align 8
  %11 = alloca i32, align 4
  %12 = alloca ptr, align 8
  %13 = alloca i32, align 4
  %14 = alloca [4 x i32], align 16
  %15 = alloca i32, align 4
  %16 = alloca ptr, align 8
  %17 = alloca ptr, align 8
  %18 = alloca ptr, align 8
  %19 = alloca i32, align 4
  %20 = alloca i32, align 4
  %21 = alloca i32, align 4
  store ptr %0, ptr %8, align 8, !tbaa !3
  store ptr %1, ptr %9, align 8, !tbaa !153
  store ptr %2, ptr %10, align 8, !tbaa !153
  store i32 %3, ptr %11, align 4, !tbaa !39
  store ptr %4, ptr %12, align 8, !tbaa !61
  store i32 %5, ptr %13, align 4, !tbaa !39
  call void @llvm.lifetime.start.p0(i64 16, ptr %14) #13
  call void @llvm.lifetime.start.p0(i64 4, ptr %15) #13
  store i32 1, ptr %15, align 4, !tbaa !39
  call void @llvm.lifetime.start.p0(i64 8, ptr %16) #13
  call void @llvm.lifetime.start.p0(i64 8, ptr %17) #13
  call void @llvm.lifetime.start.p0(i64 8, ptr %18) #13
  call void @llvm.lifetime.start.p0(i64 4, ptr %19) #13
  call void @llvm.lifetime.start.p0(i64 4, ptr %20) #13
  %22 = load ptr, ptr %10, align 8, !tbaa !153
  %23 = getelementptr inbounds nuw %struct.Str_Mux_t_, ptr %22, i32 0, i32 4
  %24 = load i32, ptr %11, align 4, !tbaa !39
  %25 = sext i32 %24 to i64
  %26 = getelementptr inbounds [3 x %struct.Str_Edg_t_], ptr %23, i64 0, i64 %25
  %27 = getelementptr inbounds nuw %struct.Str_Edg_t_, ptr %26, i32 0, i32 0
  %28 = load i32, ptr %27, align 4, !tbaa !155
  %29 = icmp sle i32 %28, 0
  br i1 %29, label %30, label %31

30:                                               ; preds = %6
  store i32 0, ptr %7, align 4
  store i32 1, ptr %21, align 4
  br label %199

31:                                               ; preds = %6
  %32 = load ptr, ptr %10, align 8, !tbaa !153
  %33 = load i32, ptr %11, align 4, !tbaa !39
  %34 = call ptr @Str_MuxFanin(ptr noundef %32, i32 noundef %33)
  store ptr %34, ptr %16, align 8, !tbaa !153
  %35 = load ptr, ptr %8, align 8, !tbaa !3
  %36 = load ptr, ptr %9, align 8, !tbaa !153
  %37 = load ptr, ptr %16, align 8, !tbaa !153
  %38 = load ptr, ptr %12, align 8, !tbaa !61
  %39 = load i32, ptr %13, align 4, !tbaa !39
  %40 = call i32 @Str_MuxRestructArea_rec(ptr noundef %35, ptr noundef %36, ptr noundef %37, i32 noundef 0, ptr noundef %38, i32 noundef %39)
  store i32 %40, ptr %19, align 4, !tbaa !39
  %41 = load ptr, ptr %8, align 8, !tbaa !3
  %42 = load ptr, ptr %9, align 8, !tbaa !153
  %43 = load ptr, ptr %16, align 8, !tbaa !153
  %44 = load ptr, ptr %12, align 8, !tbaa !61
  %45 = load i32, ptr %13, align 4, !tbaa !39
  %46 = call i32 @Str_MuxRestructArea_rec(ptr noundef %41, ptr noundef %42, ptr noundef %43, i32 noundef 1, ptr noundef %44, i32 noundef %45)
  store i32 %46, ptr %20, align 4, !tbaa !39
  %47 = load i32, ptr %19, align 4, !tbaa !39
  %48 = load i32, ptr %20, align 4, !tbaa !39
  %49 = add nsw i32 %47, %48
  %50 = icmp slt i32 %49, 2
  br i1 %50, label %51, label %56

51:                                               ; preds = %31
  %52 = load i32, ptr %19, align 4, !tbaa !39
  %53 = add nsw i32 1, %52
  %54 = load i32, ptr %20, align 4, !tbaa !39
  %55 = add nsw i32 %53, %54
  store i32 %55, ptr %7, align 4
  store i32 1, ptr %21, align 4
  br label %199

56:                                               ; preds = %31
  %57 = load i32, ptr %19, align 4, !tbaa !39
  %58 = load i32, ptr %20, align 4, !tbaa !39
  %59 = add nsw i32 %57, %58
  %60 = icmp eq i32 %59, 2
  br i1 %60, label %61, label %106

61:                                               ; preds = %56
  %62 = load i32, ptr %19, align 4, !tbaa !39
  %63 = icmp eq i32 %62, 2
  br i1 %63, label %67, label %64

64:                                               ; preds = %61
  %65 = load i32, ptr %20, align 4, !tbaa !39
  %66 = icmp eq i32 %65, 2
  br i1 %66, label %67, label %98

67:                                               ; preds = %64, %61
  %68 = load ptr, ptr %16, align 8, !tbaa !153
  %69 = load i32, ptr %20, align 4, !tbaa !39
  %70 = icmp eq i32 %69, 2
  %71 = zext i1 %70 to i32
  %72 = call ptr @Str_MuxFanin(ptr noundef %68, i32 noundef %71)
  store ptr %72, ptr %17, align 8, !tbaa !153
  %73 = load ptr, ptr %10, align 8, !tbaa !153
  %74 = getelementptr inbounds nuw %struct.Str_Mux_t_, ptr %73, i32 0, i32 0
  %75 = load i32, ptr %74, align 4, !tbaa !159
  %76 = load i32, ptr %11, align 4, !tbaa !39
  %77 = call i32 @Abc_Var2Lit(i32 noundef %75, i32 noundef %76)
  %78 = getelementptr inbounds [4 x i32], ptr %14, i64 0, i64 2
  store i32 %77, ptr %78, align 8, !tbaa !39
  %79 = load ptr, ptr %16, align 8, !tbaa !153
  %80 = getelementptr inbounds nuw %struct.Str_Mux_t_, ptr %79, i32 0, i32 0
  %81 = load i32, ptr %80, align 4, !tbaa !159
  %82 = load i32, ptr %20, align 4, !tbaa !39
  %83 = icmp eq i32 %82, 2
  %84 = zext i1 %83 to i32
  %85 = call i32 @Abc_Var2Lit(i32 noundef %81, i32 noundef %84)
  %86 = getelementptr inbounds [4 x i32], ptr %14, i64 0, i64 1
  store i32 %85, ptr %86, align 4, !tbaa !39
  %87 = load ptr, ptr %17, align 8, !tbaa !153
  %88 = getelementptr inbounds nuw %struct.Str_Mux_t_, ptr %87, i32 0, i32 0
  %89 = load i32, ptr %88, align 4, !tbaa !159
  %90 = load ptr, ptr %17, align 8, !tbaa !153
  %91 = call i32 @Str_MuxHasFanin(ptr noundef %90, i32 noundef 1)
  %92 = call i32 @Abc_Var2Lit(i32 noundef %89, i32 noundef %91)
  %93 = getelementptr inbounds [4 x i32], ptr %14, i64 0, i64 0
  store i32 %92, ptr %93, align 16, !tbaa !39
  %94 = load ptr, ptr %9, align 8, !tbaa !153
  %95 = getelementptr inbounds [4 x i32], ptr %14, i64 0, i64 0
  %96 = load ptr, ptr %8, align 8, !tbaa !3
  %97 = load ptr, ptr %12, align 8, !tbaa !61
  call void @Str_MuxChangeOnce(ptr noundef %94, ptr noundef %95, i32 noundef 0, i32 noundef 2, ptr noundef null, ptr noundef %96, ptr noundef %97)
  br label %98

98:                                               ; preds = %67, %64
  %99 = load ptr, ptr %8, align 8, !tbaa !3
  %100 = load ptr, ptr %10, align 8, !tbaa !153
  %101 = load i32, ptr %11, align 4, !tbaa !39
  %102 = call ptr @Str_MuxFanin(ptr noundef %100, i32 noundef %101)
  %103 = load ptr, ptr %12, align 8, !tbaa !61
  %104 = load i32, ptr %13, align 4, !tbaa !39
  %105 = call i32 @Str_MuxRestructAreaThree(ptr noundef %99, ptr noundef %102, ptr noundef %103, i32 noundef %104)
  store i32 0, ptr %7, align 4
  store i32 1, ptr %21, align 4
  br label %199

106:                                              ; preds = %56
  %107 = load i32, ptr %15, align 4, !tbaa !39
  %108 = icmp ne i32 %107, 0
  br i1 %108, label %109, label %115

109:                                              ; preds = %106
  %110 = load ptr, ptr %8, align 8, !tbaa !3
  %111 = load ptr, ptr %16, align 8, !tbaa !153
  %112 = load ptr, ptr %12, align 8, !tbaa !61
  %113 = load i32, ptr %13, align 4, !tbaa !39
  %114 = call i32 @Str_MuxRestructAreaThree(ptr noundef %110, ptr noundef %111, ptr noundef %112, i32 noundef %113)
  store i32 0, ptr %7, align 4
  store i32 1, ptr %21, align 4
  br label %199

115:                                              ; preds = %106
  %116 = load i32, ptr %19, align 4, !tbaa !39
  %117 = icmp eq i32 %116, 2
  br i1 %117, label %118, label %152

118:                                              ; preds = %115
  %119 = load ptr, ptr %16, align 8, !tbaa !153
  %120 = call ptr @Str_MuxFanin(ptr noundef %119, i32 noundef 0)
  store ptr %120, ptr %17, align 8, !tbaa !153
  %121 = load ptr, ptr %10, align 8, !tbaa !153
  %122 = getelementptr inbounds nuw %struct.Str_Mux_t_, ptr %121, i32 0, i32 0
  %123 = load i32, ptr %122, align 4, !tbaa !159
  %124 = load i32, ptr %11, align 4, !tbaa !39
  %125 = call i32 @Abc_Var2Lit(i32 noundef %123, i32 noundef %124)
  %126 = getelementptr inbounds [4 x i32], ptr %14, i64 0, i64 3
  store i32 %125, ptr %126, align 4, !tbaa !39
  %127 = load ptr, ptr %16, align 8, !tbaa !153
  %128 = getelementptr inbounds nuw %struct.Str_Mux_t_, ptr %127, i32 0, i32 0
  %129 = load i32, ptr %128, align 4, !tbaa !159
  %130 = call i32 @Abc_Var2Lit(i32 noundef %129, i32 noundef 0)
  %131 = getelementptr inbounds [4 x i32], ptr %14, i64 0, i64 2
  store i32 %130, ptr %131, align 8, !tbaa !39
  %132 = load ptr, ptr %17, align 8, !tbaa !153
  %133 = getelementptr inbounds nuw %struct.Str_Mux_t_, ptr %132, i32 0, i32 0
  %134 = load i32, ptr %133, align 4, !tbaa !159
  %135 = load ptr, ptr %17, align 8, !tbaa !153
  %136 = call i32 @Str_MuxHasFanin(ptr noundef %135, i32 noundef 1)
  %137 = call i32 @Abc_Var2Lit(i32 noundef %134, i32 noundef %136)
  %138 = getelementptr inbounds [4 x i32], ptr %14, i64 0, i64 1
  store i32 %137, ptr %138, align 4, !tbaa !39
  %139 = load ptr, ptr %17, align 8, !tbaa !153
  %140 = load ptr, ptr %17, align 8, !tbaa !153
  %141 = call i32 @Str_MuxHasFanin(ptr noundef %140, i32 noundef 1)
  %142 = call ptr @Str_MuxFanin(ptr noundef %139, i32 noundef %141)
  store ptr %142, ptr %18, align 8, !tbaa !153
  %143 = load ptr, ptr %18, align 8, !tbaa !153
  %144 = getelementptr inbounds nuw %struct.Str_Mux_t_, ptr %143, i32 0, i32 0
  %145 = load i32, ptr %144, align 4, !tbaa !159
  %146 = call i32 @Abc_Var2Lit(i32 noundef %145, i32 noundef 0)
  %147 = getelementptr inbounds [4 x i32], ptr %14, i64 0, i64 0
  store i32 %146, ptr %147, align 16, !tbaa !39
  %148 = load ptr, ptr %9, align 8, !tbaa !153
  %149 = getelementptr inbounds [4 x i32], ptr %14, i64 0, i64 0
  %150 = load ptr, ptr %8, align 8, !tbaa !3
  %151 = load ptr, ptr %12, align 8, !tbaa !61
  call void @Str_MuxChangeOnce(ptr noundef %148, ptr noundef %149, i32 noundef 0, i32 noundef 3, ptr noundef null, ptr noundef %150, ptr noundef %151)
  br label %152

152:                                              ; preds = %118, %115
  %153 = load i32, ptr %20, align 4, !tbaa !39
  %154 = icmp eq i32 %153, 2
  br i1 %154, label %155, label %189

155:                                              ; preds = %152
  %156 = load ptr, ptr %16, align 8, !tbaa !153
  %157 = call ptr @Str_MuxFanin(ptr noundef %156, i32 noundef 1)
  store ptr %157, ptr %17, align 8, !tbaa !153
  %158 = load ptr, ptr %10, align 8, !tbaa !153
  %159 = getelementptr inbounds nuw %struct.Str_Mux_t_, ptr %158, i32 0, i32 0
  %160 = load i32, ptr %159, align 4, !tbaa !159
  %161 = load i32, ptr %11, align 4, !tbaa !39
  %162 = call i32 @Abc_Var2Lit(i32 noundef %160, i32 noundef %161)
  %163 = getelementptr inbounds [4 x i32], ptr %14, i64 0, i64 3
  store i32 %162, ptr %163, align 4, !tbaa !39
  %164 = load ptr, ptr %16, align 8, !tbaa !153
  %165 = getelementptr inbounds nuw %struct.Str_Mux_t_, ptr %164, i32 0, i32 0
  %166 = load i32, ptr %165, align 4, !tbaa !159
  %167 = call i32 @Abc_Var2Lit(i32 noundef %166, i32 noundef 1)
  %168 = getelementptr inbounds [4 x i32], ptr %14, i64 0, i64 2
  store i32 %167, ptr %168, align 8, !tbaa !39
  %169 = load ptr, ptr %17, align 8, !tbaa !153
  %170 = getelementptr inbounds nuw %struct.Str_Mux_t_, ptr %169, i32 0, i32 0
  %171 = load i32, ptr %170, align 4, !tbaa !159
  %172 = load ptr, ptr %17, align 8, !tbaa !153
  %173 = call i32 @Str_MuxHasFanin(ptr noundef %172, i32 noundef 1)
  %174 = call i32 @Abc_Var2Lit(i32 noundef %171, i32 noundef %173)
  %175 = getelementptr inbounds [4 x i32], ptr %14, i64 0, i64 1
  store i32 %174, ptr %175, align 4, !tbaa !39
  %176 = load ptr, ptr %17, align 8, !tbaa !153
  %177 = load ptr, ptr %17, align 8, !tbaa !153
  %178 = call i32 @Str_MuxHasFanin(ptr noundef %177, i32 noundef 1)
  %179 = call ptr @Str_MuxFanin(ptr noundef %176, i32 noundef %178)
  store ptr %179, ptr %18, align 8, !tbaa !153
  %180 = load ptr, ptr %18, align 8, !tbaa !153
  %181 = getelementptr inbounds nuw %struct.Str_Mux_t_, ptr %180, i32 0, i32 0
  %182 = load i32, ptr %181, align 4, !tbaa !159
  %183 = call i32 @Abc_Var2Lit(i32 noundef %182, i32 noundef 0)
  %184 = getelementptr inbounds [4 x i32], ptr %14, i64 0, i64 0
  store i32 %183, ptr %184, align 16, !tbaa !39
  %185 = load ptr, ptr %9, align 8, !tbaa !153
  %186 = getelementptr inbounds [4 x i32], ptr %14, i64 0, i64 0
  %187 = load ptr, ptr %8, align 8, !tbaa !3
  %188 = load ptr, ptr %12, align 8, !tbaa !61
  call void @Str_MuxChangeOnce(ptr noundef %185, ptr noundef %186, i32 noundef 0, i32 noundef 3, ptr noundef null, ptr noundef %187, ptr noundef %188)
  br label %189

189:                                              ; preds = %155, %152
  %190 = load ptr, ptr %8, align 8, !tbaa !3
  %191 = load ptr, ptr %16, align 8, !tbaa !153
  %192 = load ptr, ptr %12, align 8, !tbaa !61
  %193 = load i32, ptr %13, align 4, !tbaa !39
  %194 = call i32 @Str_MuxRestructAreaThree(ptr noundef %190, ptr noundef %191, ptr noundef %192, i32 noundef %193)
  %195 = load i32, ptr %19, align 4, !tbaa !39
  %196 = load i32, ptr %20, align 4, !tbaa !39
  %197 = add nsw i32 %195, %196
  %198 = sub nsw i32 %197, 2
  store i32 %198, ptr %7, align 4
  store i32 1, ptr %21, align 4
  br label %199

199:                                              ; preds = %189, %109, %98, %51, %30
  call void @llvm.lifetime.end.p0(i64 4, ptr %20) #13
  call void @llvm.lifetime.end.p0(i64 4, ptr %19) #13
  call void @llvm.lifetime.end.p0(i64 8, ptr %18) #13
  call void @llvm.lifetime.end.p0(i64 8, ptr %17) #13
  call void @llvm.lifetime.end.p0(i64 8, ptr %16) #13
  call void @llvm.lifetime.end.p0(i64 4, ptr %15) #13
  call void @llvm.lifetime.end.p0(i64 16, ptr %14) #13
  %200 = load i32, ptr %7, align 4
  ret i32 %200
}