; Function Attrs: nounwind uwtable
define range(i32 -2147483647, 3) i32 @Str_MuxRestructArea_rec(ptr noundef %0, ptr noundef %1, ptr noundef %2, i32 noundef %3, ptr noundef %4, i32 noundef %5) local_unnamed_addr #0 {
  %7 = alloca [4 x i32], align 16
  call void @llvm.lifetime.start.p0(i64 16, ptr nonnull %7) #26
  %8 = getelementptr inbounds nuw i8, ptr %2, i64 16
  %9 = sext i32 %3 to i64
  %10 = getelementptr inbounds [3 x %struct.Str_Edg_t_], ptr %8, i64 0, i64 %9
  %11 = load i32, ptr %10, align 4, !tbaa !136
  %12 = icmp slt i32 %11, 1
  br i1 %12, label %77, label %13

13:                                               ; preds = %6
  %14 = load i32, ptr %2, align 4, !tbaa !139
  %15 = sext i32 %14 to i64
  %16 = sub nsw i64 0, %15
  %17 = getelementptr inbounds %struct.Str_Mux_t_, ptr %2, i64 %16
  %18 = zext nneg i32 %11 to i64
  %19 = getelementptr inbounds nuw %struct.Str_Mux_t_, ptr %17, i64 %18
  %20 = tail call i32 @Str_MuxRestructArea_rec(ptr noundef %0, ptr noundef %1, ptr noundef nonnull %19, i32 noundef 0, ptr noundef %4, i32 noundef %5)
  %21 = tail call i32 @Str_MuxRestructArea_rec(ptr noundef %0, ptr noundef %1, ptr noundef nonnull %19, i32 noundef 1, ptr noundef %4, i32 noundef %5)
  %22 = add i32 %21, %20
  %23 = icmp slt i32 %22, 2
  br i1 %23, label %24, label %26

24:                                               ; preds = %13
  %25 = add nsw i32 %22, 1
  br label %77

26:                                               ; preds = %13
  %27 = icmp eq i32 %22, 2
  br i1 %27, label %28, label %75

28:                                               ; preds = %26
  %29 = icmp eq i32 %20, 2
  %30 = icmp eq i32 %21, 2
  %or.cond = or i1 %29, %30
  br i1 %or.cond, label %31, label %66

31:                                               ; preds = %28
  %32 = zext i1 %30 to i32
  %33 = load i32, ptr %19, align 4, !tbaa !139
  %34 = sext i32 %33 to i64
  %35 = sub nsw i64 0, %34
  %36 = getelementptr inbounds %struct.Str_Mux_t_, ptr %19, i64 %35
  %37 = getelementptr inbounds nuw i8, ptr %19, i64 16
  %38 = zext i1 %30 to i64
  %39 = getelementptr inbounds nuw [3 x %struct.Str_Edg_t_], ptr %37, i64 0, i64 %38
  %40 = load i32, ptr %39, align 4, !tbaa !136
  %41 = sext i32 %40 to i64
  %42 = getelementptr inbounds %struct.Str_Mux_t_, ptr %36, i64 %41
  %43 = load i32, ptr %2, align 4, !tbaa !139
  %44 = shl nsw i32 %43, 1
  %45 = add nsw i32 %44, %3
  %46 = getelementptr inbounds nuw i8, ptr %7, i64 8
  store i32 %45, ptr %46, align 8, !tbaa !38
  %47 = shl nsw i32 %33, 1
  %48 = or disjoint i32 %47, %32
  %49 = getelementptr inbounds nuw i8, ptr %7, i64 4
  store i32 %48, ptr %49, align 4, !tbaa !38
  %50 = load i32, ptr %42, align 4, !tbaa !139
  %51 = getelementptr inbounds nuw i8, ptr %42, i64 32
  %52 = load i32, ptr %51, align 4, !tbaa !136
  %53 = icmp sgt i32 %52, 0
  br i1 %53, label %54, label %Str_MuxHasFanin.exit

54:                                               ; preds = %31
  %55 = sext i32 %50 to i64
  %56 = sub nsw i64 0, %55
  %57 = getelementptr inbounds %struct.Str_Mux_t_, ptr %42, i64 %56
  %58 = zext nneg i32 %52 to i64
  %59 = getelementptr inbounds nuw %struct.Str_Mux_t_, ptr %57, i64 %58, i32 2
  %60 = load i32, ptr %59, align 4, !tbaa !143
  %61 = icmp ne i32 %60, -2
  %62 = zext i1 %61 to i32
  br label %Str_MuxHasFanin.exit

Str_MuxHasFanin.exit:                             ; preds = %31, %54
  %63 = phi i32 [ 0, %31 ], [ %62, %54 ]
  %64 = shl nsw i32 %50, 1
  %65 = or disjoint i32 %63, %64
  store i32 %65, ptr %7, align 16, !tbaa !38
  call void @Str_MuxChangeOnce(ptr noundef %1, ptr noundef nonnull %7, i32 noundef 0, i32 noundef 2, ptr noundef null, ptr noundef %0, ptr noundef %4)
  br label %66

66:                                               ; preds = %28, %Str_MuxHasFanin.exit
  %67 = load i32, ptr %2, align 4, !tbaa !139
  %68 = sext i32 %67 to i64
  %69 = sub nsw i64 0, %68
  %70 = getelementptr inbounds %struct.Str_Mux_t_, ptr %2, i64 %69
  %71 = load i32, ptr %10, align 4, !tbaa !136
  %72 = sext i32 %71 to i64
  %73 = getelementptr inbounds %struct.Str_Mux_t_, ptr %70, i64 %72
  %74 = tail call i32 @Str_MuxRestructAreaThree(ptr noundef %0, ptr noundef nonnull %73, ptr noundef %4, i32 poison)
  br label %77

75:                                               ; preds = %26
  %76 = tail call i32 @Str_MuxRestructAreaThree(ptr noundef %0, ptr noundef nonnull %19, ptr noundef %4, i32 poison)
  br label %77

77:                                               ; preds = %6, %75, %66, %24
  %.0 = phi i32 [ %25, %24 ], [ 0, %66 ], [ 0, %75 ], [ 0, %6 ]
  call void @llvm.lifetime.end.p0(i64 16, ptr nonnull %7) #26
  ret i32 %.0
}